; Function Attrs: mustprogress nounwind uwtable
define hidden void @_ZN8CallInfo13set_interfaceEP5KlassRK12methodHandleS4_iP10JavaThread(ptr noundef nonnull align 8 dereferenceable(64) %0, ptr noundef %1, ptr noundef nonnull align 8 dereferenceable(16) %2, ptr noundef nonnull align 8 dereferenceable(16) %3, i32 noundef %4, ptr noundef %5) local_unnamed_addr #0 align 2 {
  store ptr %1, ptr %0, align 8
  %7 = getelementptr inbounds i8, ptr %0, i64 8
  %8 = tail call noundef nonnull align 8 dereferenceable(16) ptr @_ZN12methodHandleaSERKS_(ptr noundef nonnull align 8 dereferenceable(16) %7, ptr noundef nonnull align 8 dereferenceable(16) %2) #10
  %9 = getelementptr inbounds i8, ptr %0, i64 24
  %10 = tail call noundef nonnull align 8 dereferenceable(16) ptr @_ZN12methodHandleaSERKS_(ptr noundef nonnull align 8 dereferenceable(16) %9, ptr noundef nonnull align 8 dereferenceable(16) %3) #10
  %11 = getelementptr inbounds i8, ptr %0, i64 40
  store i32 2, ptr %11, align 8
  %12 = getelementptr inbounds i8, ptr %0, i64 44
  store i32 %4, ptr %12, align 4
  %13 = getelementptr inbounds i8, ptr %0, i64 48
  store i64 0, ptr %13, align 8
  %14 = load ptr, ptr %3, align 8
  %.not.i = icmp eq ptr %14, null
  br i1 %.not.i, label %_ZN8CallInfo10set_commonEP5KlassRK12methodHandleS4_NS_8CallKindEiP10JavaThread.exit, label %15

15:                                               ; preds = %6
  tail call void @_ZN17CompilationPolicy19compile_if_requiredERK12methodHandleP10JavaThread(ptr noundef nonnull align 8 dereferenceable(16) %3, ptr noundef %5) #10
  br label %_ZN8CallInfo10set_commonEP5KlassRK12methodHandleS4_NS_8CallKindEiP10JavaThread.exit

_ZN8CallInfo10set_commonEP5KlassRK12methodHandleS4_NS_8CallKindEiP10JavaThread.exit: ; preds = %6, %15
  ret void
}